target datalayout = "e-m:e-p270:32:32-p271:32:32-p272:64:64-i64:64-i128:128-f80:128-n8:16:32:64-S128"
target triple = "x86_64-pc-linux-gnu"

; Function Attrs: nounwind uwtable
define void @ECPG_informix_reset_sqlca() #0 {
  %1 = alloca ptr, align 8
  %2 = alloca i32, align 4
  call void @llvm.lifetime.start.p0(i64 8, ptr %1) #9
  %3 = call ptr @ECPGget_sqlca()
  store ptr %3, ptr %1, align 8
  %4 = load ptr, ptr %1, align 8
  %5 = icmp eq ptr %4, null
  br i1 %5, label %6, label %7

6:                                                ; preds = %0
  store i32 1, ptr %2, align 4
  br label %9

7:                                                ; preds = %0
  %8 = load ptr, ptr %1, align 8
  call void @llvm.memcpy.p0.p0.i64(ptr align 8 %8, ptr align 8 @sqlca_init, i64 256, i1 false)
  store i32 0, ptr %2, align 4
  br label %9

9:                                                ; preds = %7, %6
  call void @llvm.lifetime.end.p0(i64 8, ptr %1) #9
  %10 = load i32, ptr %2, align 4
  switch i32 %10, label %12 [
    i32 0, label %11
    i32 1, label %11
  ]

11:                                               ; preds = %9, %9
  ret void

12:                                               ; preds = %9
  unreachable
}