; Function Attrs: nounwind uwtable
define void @ECPG_informix_reset_sqlca() local_unnamed_addr #0 {
  %1 = tail call ptr @ECPGget_sqlca() #16
  %2 = icmp eq ptr %1, null
  br i1 %2, label %4, label %3

3:                                                ; preds = %0
  tail call void @llvm.memcpy.p0.p0.i64(ptr noundef nonnull align 8 dereferenceable(256) %1, ptr noundef nonnull align 8 dereferenceable(256) @sqlca_init, i64 256, i1 false)
  br label %4

4:                                                ; preds = %0, %3
  ret void
}